; Function Attrs: mustprogress uwtable
define internal fastcc void @_ZN7testing8internal26CartesianProductGenerator3IN2cv5Size_IiEES4_N11opencv_test12_GLOBAL__N_110MethodTypeEEC2ERKNS0_14ParamGeneratorIS4_EESC_RKNS9_IS7_EE(ptr noundef nonnull align 8 dereferenceable(56) initializes((0, 16)) %0, ptr noundef nonnull align 8 dereferenceable(16) %1, ptr noundef nonnull align 8 dereferenceable(16) %2, ptr noundef nonnull align 8 dereferenceable(16) %3) unnamed_addr #4 align 2 personality ptr @__gxx_personality_v0 {
  store ptr getelementptr inbounds nuw inrange(-16, 32) (i8, ptr @_ZTVN7testing8internal26CartesianProductGenerator3IN2cv5Size_IiEES4_N11opencv_test12_GLOBAL__N_110MethodTypeEEE, i64 16), ptr %0, align 8, !tbaa !19
  %5 = getelementptr inbounds nuw i8, ptr %0, i64 8
  %6 = load ptr, ptr %1, align 8, !tbaa !116
  store ptr %6, ptr %5, align 8, !tbaa !116
  %.not.i.i.i = icmp eq ptr %6, null
  br i1 %.not.i.i.i, label %15, label %7

7:                                                ; preds = %4
  %8 = getelementptr inbounds nuw i8, ptr %1, i64 8
  tail call void @_ZN7testing8internal9MutexBase4LockEv(ptr noundef nonnull align 8 dereferenceable(56) @_ZN7testing8internal18g_linked_ptr_mutexE)
  br label %.noexc

.noexc:                                           ; preds = %7, %.noexc
  %.0.i.i.i.i = phi ptr [ %9, %.noexc ], [ %8, %7 ]
  %9 = load ptr, ptr %.0.i.i.i.i, align 8, !tbaa !29
  %.not.i.i.i.i = icmp eq ptr %9, %8
  br i1 %.not.i.i.i.i, label %10, label %.noexc, !llvm.loop !34

10:                                               ; preds = %.noexc
  %11 = getelementptr inbounds nuw i8, ptr %0, i64 16
  store ptr %11, ptr %.0.i.i.i.i, align 8, !tbaa !29
  store ptr %8, ptr %11, align 8, !tbaa !29
  invoke void @_ZN7testing8internal9MutexBase6UnlockEv(ptr noundef nonnull align 8 dereferenceable(56) @_ZN7testing8internal18g_linked_ptr_mutexE)
          to label %_ZN7testing8internal14ParamGeneratorIN2cv5Size_IiEEEC2ERKS5_.exit unwind label %12

12:                                               ; preds = %10
  %13 = landingpad { ptr, i32 }
          catch ptr null
  %14 = extractvalue { ptr, i32 } %13, 0
  tail call void @__clang_call_terminate(ptr %14) #33
  unreachable

15:                                               ; preds = %4
  %16 = getelementptr inbounds nuw i8, ptr %0, i64 16
  store ptr %16, ptr %16, align 8, !tbaa !29
  br label %_ZN7testing8internal14ParamGeneratorIN2cv5Size_IiEEEC2ERKS5_.exit

_ZN7testing8internal14ParamGeneratorIN2cv5Size_IiEEEC2ERKS5_.exit: ; preds = %15, %10
  %17 = getelementptr inbounds nuw i8, ptr %0, i64 24
  %18 = load ptr, ptr %2, align 8, !tbaa !116
  store ptr %18, ptr %17, align 8, !tbaa !116
  %.not.i.i.i9 = icmp eq ptr %18, null
  br i1 %.not.i.i.i9, label %27, label %19

19:                                               ; preds = %_ZN7testing8internal14ParamGeneratorIN2cv5Size_IiEEEC2ERKS5_.exit
  %20 = getelementptr inbounds nuw i8, ptr %2, i64 8
  invoke void @_ZN7testing8internal9MutexBase4LockEv(ptr noundef nonnull align 8 dereferenceable(56) @_ZN7testing8internal18g_linked_ptr_mutexE)
          to label %.noexc12 unwind label %40

.noexc12:                                         ; preds = %19, %.noexc12
  %.0.i.i.i.i10 = phi ptr [ %21, %.noexc12 ], [ %20, %19 ]
  %21 = load ptr, ptr %.0.i.i.i.i10, align 8, !tbaa !29
  %.not.i.i.i.i11 = icmp eq ptr %21, %20
  br i1 %.not.i.i.i.i11, label %22, label %.noexc12, !llvm.loop !34

22:                                               ; preds = %.noexc12
  %23 = getelementptr inbounds nuw i8, ptr %0, i64 32
  store ptr %23, ptr %.0.i.i.i.i10, align 8, !tbaa !29
  store ptr %20, ptr %23, align 8, !tbaa !29
  invoke void @_ZN7testing8internal9MutexBase6UnlockEv(ptr noundef nonnull align 8 dereferenceable(56) @_ZN7testing8internal18g_linked_ptr_mutexE)
          to label %_ZN7testing8internal14ParamGeneratorIN2cv5Size_IiEEEC2ERKS5_.exit13 unwind label %24

24:                                               ; preds = %22
  %25 = landingpad { ptr, i32 }
          catch ptr null
  %26 = extractvalue { ptr, i32 } %25, 0
  tail call void @__clang_call_terminate(ptr %26) #33
  unreachable

27:                                               ; preds = %_ZN7testing8internal14ParamGeneratorIN2cv5Size_IiEEEC2ERKS5_.exit
  %28 = getelementptr inbounds nuw i8, ptr %0, i64 32
  store ptr %28, ptr %28, align 8, !tbaa !29
  br label %_ZN7testing8internal14ParamGeneratorIN2cv5Size_IiEEEC2ERKS5_.exit13

_ZN7testing8internal14ParamGeneratorIN2cv5Size_IiEEEC2ERKS5_.exit13: ; preds = %27, %22
  %29 = getelementptr inbounds nuw i8, ptr %0, i64 40
  %.val.i.i.i = load ptr, ptr %3, align 8, !tbaa !91
  store ptr %.val.i.i.i, ptr %29, align 8, !tbaa !91
  %.not.i.i.i14 = icmp eq ptr %.val.i.i.i, null
  br i1 %.not.i.i.i14, label %38, label %30

30:                                               ; preds = %_ZN7testing8internal14ParamGeneratorIN2cv5Size_IiEEEC2ERKS5_.exit13
  %31 = getelementptr inbounds nuw i8, ptr %3, i64 8
  invoke void @_ZN7testing8internal9MutexBase4LockEv(ptr noundef nonnull align 8 dereferenceable(56) @_ZN7testing8internal18g_linked_ptr_mutexE)
          to label %.noexc17 unwind label %42

.noexc17:                                         ; preds = %30, %.noexc17
  %.0.i.i.i.i15 = phi ptr [ %32, %.noexc17 ], [ %31, %30 ]
  %32 = load ptr, ptr %.0.i.i.i.i15, align 8, !tbaa !29
  %.not.i.i.i.i16 = icmp eq ptr %32, %31
  br i1 %.not.i.i.i.i16, label %33, label %.noexc17, !llvm.loop !34

33:                                               ; preds = %.noexc17
  %34 = getelementptr inbounds nuw i8, ptr %0, i64 48
  store ptr %34, ptr %.0.i.i.i.i15, align 8, !tbaa !29
  store ptr %31, ptr %34, align 8, !tbaa !29
  invoke void @_ZN7testing8internal9MutexBase6UnlockEv(ptr noundef nonnull align 8 dereferenceable(56) @_ZN7testing8internal18g_linked_ptr_mutexE)
          to label %_ZN7testing8internal14ParamGeneratorIN11opencv_test12_GLOBAL__N_110MethodTypeEEC2ERKS5_.exit unwind label %35

35:                                               ; preds = %33
  %36 = landingpad { ptr, i32 }
          catch ptr null
  %37 = extractvalue { ptr, i32 } %36, 0
  tail call void @__clang_call_terminate(ptr %37) #33
  unreachable

38:                                               ; preds = %_ZN7testing8internal14ParamGeneratorIN2cv5Size_IiEEEC2ERKS5_.exit13
  %39 = getelementptr inbounds nuw i8, ptr %0, i64 48
  store ptr %39, ptr %39, align 8, !tbaa !29
  br label %_ZN7testing8internal14ParamGeneratorIN11opencv_test12_GLOBAL__N_110MethodTypeEEC2ERKS5_.exit

_ZN7testing8internal14ParamGeneratorIN11opencv_test12_GLOBAL__N_110MethodTypeEEC2ERKS5_.exit: ; preds = %38, %33
  ret void

40:                                               ; preds = %19
  %41 = landingpad { ptr, i32 }
          cleanup
  br label %44

42:                                               ; preds = %30
  %43 = landingpad { ptr, i32 }
          cleanup
  tail call void @_ZN7testing8internal14ParamGeneratorIN2cv5Size_IiEEED2Ev(ptr noundef nonnull align 8 dereferenceable(16) %17) #30
  br label %44

44:                                               ; preds = %42, %40
  %.pn = phi { ptr, i32 } [ %43, %42 ], [ %41, %40 ]
  tail call void @_ZN7testing8internal14ParamGeneratorIN2cv5Size_IiEEED2Ev(ptr noundef nonnull align 8 dereferenceable(16) %5) #30
  resume { ptr, i32 } %.pn
}